target datalayout = "e-m:e-p270:32:32-p271:32:32-p272:64:64-i64:64-i128:128-f80:128-n8:16:32:64-S128"
target triple = "x86_64-unknown-linux-gnu"

%struct.QTailQLink = type { ptr, ptr }
%struct.BlockDriverState = type { i32, i8, i8, i8, i8, i8, ptr, ptr, ptr, %struct.anon.0, i8, [4096 x i8], [4096 x i8], [4096 x i8], [16 x i8], ptr, [4096 x i8], %struct.BlockLimits, i32, i32, i32, i32, [32 x i8], %union.anon, %union.anon.1, %union.anon.2, i32, [16 x %struct.anon.3], ptr, %struct.anon.4, ptr, ptr, %struct.anon.5, ptr, ptr, i32, ptr, i64, i64, %struct.QemuMutex, %struct.anon.6, %struct.Stat64, i32, i32, i32, i32, i32, i32, %struct.QemuMutex, %struct.anon.7, %struct.CoQueue, i8, i32, i8, %struct.CoMutex, ptr, ptr }
%struct.anon.0 = type { ptr }
%struct.BlockLimits = type { i32, i64, i32, i64, i32, i32, i32, i64, i32, i64, i64, i32, i8, i32, i32, i32, i32, i32, i32, i32 }
%union.anon = type { %struct.QTailQLink }
%union.anon.1 = type { %struct.QTailQLink }
%union.anon.2 = type { %struct.QTailQLink }
%struct.anon.3 = type { ptr }
%struct.anon.4 = type { ptr }
%struct.anon.5 = type { ptr }
%struct.anon.6 = type { ptr }
%struct.Stat64 = type { i64 }
%struct.QemuMutex = type { %union.pthread_mutex_t, i8 }
%union.pthread_mutex_t = type { %struct.__pthread_mutex_s }
%struct.__pthread_mutex_s = type { i32, i32, i32, i32, i32, i16, i16, %struct.__pthread_internal_list }
%struct.__pthread_internal_list = type { ptr, ptr }
%struct.anon.7 = type { ptr }
%struct.CoQueue = type { %struct.anon.8 }
%struct.anon.8 = type { ptr, ptr }
%struct.CoMutex = type { i32, ptr, %struct.anon.9, %struct.anon.9, i32, i32, ptr }
%struct.anon.9 = type { ptr }
%struct.BDRVBlkdebugState = type { i64, i64, i64, i64, i64, i64, ptr, i64, i64, i32, [48 x %struct.anon.10], %struct.anon.11, %struct.anon.12, %struct.QemuMutex }
%struct.anon.10 = type { ptr }
%struct.anon.11 = type { ptr, ptr }
%struct.anon.12 = type { ptr }
%struct.BlkdebugRule = type { i32, i32, i32, %union.anon.16, %struct.anon.20, %struct.anon.21 }
%union.anon.16 = type { %struct.anon.17 }
%struct.anon.17 = type { i64, i32, i32, i32, i64 }
%struct.anon.20 = type { ptr, ptr }
%struct.anon.21 = type { ptr }
%struct.anon.19 = type { ptr }
%struct.QemuLockable = type { ptr, ptr, ptr }

; Function Attrs: nounwind sspstrong uwtable
define internal void @qemu_lockable_unlock(ptr noundef %x) #0 {
entry:
  %x.addr = alloca ptr, align 8
  store ptr %x, ptr %x.addr, align 8
  %0 = load ptr, ptr %x.addr, align 8
  %unlock = getelementptr inbounds %struct.QemuLockable, ptr %0, i32 0, i32 2
  %1 = load ptr, ptr %unlock, align 8
  %2 = load ptr, ptr %x.addr, align 8
  %object = getelementptr inbounds %struct.QemuLockable, ptr %2, i32 0, i32 0
  %3 = load ptr, ptr %object, align 8
  call void %1(ptr noundef %3)
  ret void
}

; Function Attrs: nounwind sspstrong uwtable
define internal void @qemu_lockable_auto_unlock(ptr noundef %x) #0 {
entry:
  %x.addr = alloca ptr, align 8
  store ptr %x, ptr %x.addr, align 8
  %0 = load ptr, ptr %x.addr, align 8
  %tobool = icmp ne ptr %0, null
  br i1 %tobool, label %if.then, label %if.end

if.then:                                          ; preds = %entry
  %1 = load ptr, ptr %x.addr, align 8
  call void @qemu_lockable_unlock(ptr noundef %1)
  br label %if.end

if.end:                                           ; preds = %if.then, %entry
  ret void
}

; Function Attrs: nounwind sspstrong uwtable
define internal void @glib_autoptr_clear_QemuLockable(ptr noundef %_ptr) #0 {
entry:
  %_ptr.addr = alloca ptr, align 8
  store ptr %_ptr, ptr %_ptr.addr, align 8
  %0 = load ptr, ptr %_ptr.addr, align 8
  %tobool = icmp ne ptr %0, null
  br i1 %tobool, label %if.then, label %if.end

if.then:                                          ; preds = %entry
  %1 = load ptr, ptr %_ptr.addr, align 8
  call void @qemu_lockable_auto_unlock(ptr noundef %1)
  br label %if.end

if.end:                                           ; preds = %if.then, %entry
  ret void
}

; Function Attrs: nounwind sspstrong uwtable
define internal void @qemu_lockable_lock(ptr noundef %x) #0 {
entry:
  %x.addr = alloca ptr, align 8
  store ptr %x, ptr %x.addr, align 8
  %0 = load ptr, ptr %x.addr, align 8
  %lock = getelementptr inbounds %struct.QemuLockable, ptr %0, i32 0, i32 1
  %1 = load ptr, ptr %lock, align 8
  %2 = load ptr, ptr %x.addr, align 8
  %object = getelementptr inbounds %struct.QemuLockable, ptr %2, i32 0, i32 0
  %3 = load ptr, ptr %object, align 8
  call void %1(ptr noundef %3)
  ret void
}

; Function Attrs: nounwind sspstrong uwtable
define internal void @glib_autoptr_cleanup_QemuLockable(ptr noundef %_ptr) #0 {
entry:
  %_ptr.addr = alloca ptr, align 8
  store ptr %_ptr, ptr %_ptr.addr, align 8
  %0 = load ptr, ptr %_ptr.addr, align 8
  %1 = load ptr, ptr %0, align 8
  call void @glib_autoptr_clear_QemuLockable(ptr noundef %1)
  ret void
}

; Function Attrs: nounwind sspstrong uwtable
define internal void @remove_rule(ptr noundef %rule) #0 {
entry:
  %rule.addr = alloca ptr, align 8
  store ptr %rule, ptr %rule.addr, align 8
  %0 = load ptr, ptr %rule.addr, align 8
  %action = getelementptr inbounds %struct.BlkdebugRule, ptr %0, i32 0, i32 1
  %1 = load i32, ptr %action, align 4
  switch i32 %1, label %sw.epilog [
    i32 0, label %sw.bb
    i32 1, label %sw.bb
    i32 2, label %sw.bb1
  ]

sw.bb:                                            ; preds = %entry, %entry
  br label %sw.epilog

sw.bb1:                                           ; preds = %entry
  %2 = load ptr, ptr %rule.addr, align 8
  %options = getelementptr inbounds %struct.BlkdebugRule, ptr %2, i32 0, i32 3
  %tag = getelementptr inbounds %struct.anon.19, ptr %options, i32 0, i32 0
  %3 = load ptr, ptr %tag, align 8
  call void @g_free(ptr noundef %3)
  br label %sw.epilog

sw.epilog:                                        ; preds = %sw.bb1, %sw.bb, %entry
  br label %do.body

do.body:                                          ; preds = %sw.epilog
  %4 = load ptr, ptr %rule.addr, align 8
  %next = getelementptr inbounds %struct.BlkdebugRule, ptr %4, i32 0, i32 4
  %le_next = getelementptr inbounds %struct.anon.20, ptr %next, i32 0, i32 0
  %5 = load ptr, ptr %le_next, align 8
  %cmp = icmp ne ptr %5, null
  br i1 %cmp, label %if.then, label %if.end

if.then:                                          ; preds = %do.body
  %6 = load ptr, ptr %rule.addr, align 8
  %next2 = getelementptr inbounds %struct.BlkdebugRule, ptr %6, i32 0, i32 4
  %le_prev = getelementptr inbounds %struct.anon.20, ptr %next2, i32 0, i32 1
  %7 = load ptr, ptr %le_prev, align 8
  %8 = load ptr, ptr %rule.addr, align 8
  %next3 = getelementptr inbounds %struct.BlkdebugRule, ptr %8, i32 0, i32 4
  %le_next4 = getelementptr inbounds %struct.anon.20, ptr %next3, i32 0, i32 0
  %9 = load ptr, ptr %le_next4, align 8
  %next5 = getelementptr inbounds %struct.BlkdebugRule, ptr %9, i32 0, i32 4
  %le_prev6 = getelementptr inbounds %struct.anon.20, ptr %next5, i32 0, i32 1
  store ptr %7, ptr %le_prev6, align 8
  br label %if.end

if.end:                                           ; preds = %if.then, %do.body
  %10 = load ptr, ptr %rule.addr, align 8
  %next7 = getelementptr inbounds %struct.BlkdebugRule, ptr %10, i32 0, i32 4
  %le_next8 = getelementptr inbounds %struct.anon.20, ptr %next7, i32 0, i32 0
  %11 = load ptr, ptr %le_next8, align 8
  %12 = load ptr, ptr %rule.addr, align 8
  %next9 = getelementptr inbounds %struct.BlkdebugRule, ptr %12, i32 0, i32 4
  %le_prev10 = getelementptr inbounds %struct.anon.20, ptr %next9, i32 0, i32 1
  %13 = load ptr, ptr %le_prev10, align 8
  store ptr %11, ptr %13, align 8
  %14 = load ptr, ptr %rule.addr, align 8
  %next11 = getelementptr inbounds %struct.BlkdebugRule, ptr %14, i32 0, i32 4
  %le_next12 = getelementptr inbounds %struct.anon.20, ptr %next11, i32 0, i32 0
  store ptr null, ptr %le_next12, align 8
  %15 = load ptr, ptr %rule.addr, align 8
  %next13 = getelementptr inbounds %struct.BlkdebugRule, ptr %15, i32 0, i32 4
  %le_prev14 = getelementptr inbounds %struct.anon.20, ptr %next13, i32 0, i32 1
  store ptr null, ptr %le_prev14, align 8
  br label %do.end

do.end:                                           ; preds = %if.end
  %16 = load ptr, ptr %rule.addr, align 8
  call void @g_free(ptr noundef %16)
  ret void
}

; Function Attrs: nounwind sspstrong uwtable
define internal ptr @qemu_lockable_auto_lock(ptr noundef %x) #0 {
entry:
  %x.addr = alloca ptr, align 8
  store ptr %x, ptr %x.addr, align 8
  %0 = load ptr, ptr %x.addr, align 8
  call void @qemu_lockable_lock(ptr noundef %0)
  %1 = load ptr, ptr %x.addr, align 8
  ret ptr %1
}

; Function Attrs: nounwind sspstrong uwtable
define internal i32 @blkdebug_debug_remove_breakpoint(ptr noundef %bs, ptr noundef %tag) #0 {
entry:
  %x.addr.i = alloca ptr, align 8
  %lockable.addr.i = alloca ptr, align 8
  %bs.addr = alloca ptr, align 8
  %tag.addr = alloca ptr, align 8
  %s = alloca ptr, align 8
  %rule = alloca ptr, align 8
  %next = alloca ptr, align 8
  %i = alloca i32, align 4
  %ret = alloca i32, align 4
  %qemu_lockable_auto17 = alloca ptr, align 8
  %.compoundliteral = alloca %struct.QemuLockable, align 8
  store ptr %bs, ptr %bs.addr, align 8
  store ptr %tag, ptr %tag.addr, align 8
  %0 = load ptr, ptr %bs.addr, align 8
  %opaque = getelementptr inbounds %struct.BlockDriverState, ptr %0, i32 0, i32 7
  %1 = load ptr, ptr %opaque, align 8
  store ptr %1, ptr %s, align 8
  store i32 -2, ptr %ret, align 4
  %2 = load ptr, ptr %s, align 8
  %lock = getelementptr inbounds %struct.BDRVBlkdebugState, ptr %2, i32 0, i32 13
  %object = getelementptr inbounds %struct.QemuLockable, ptr %.compoundliteral, i32 0, i32 0
  %3 = load ptr, ptr %s, align 8
  %lock1 = getelementptr inbounds %struct.BDRVBlkdebugState, ptr %3, i32 0, i32 13
  store ptr %lock1, ptr %object, align 8
  %lock2 = getelementptr inbounds %struct.QemuLockable, ptr %.compoundliteral, i32 0, i32 1
  store ptr @qemu_mutex_lock, ptr %lock2, align 8
  %unlock = getelementptr inbounds %struct.QemuLockable, ptr %.compoundliteral, i32 0, i32 2
  store ptr @qemu_mutex_unlock, ptr %unlock, align 8
  store ptr %lock, ptr %x.addr.i, align 8
  store ptr %.compoundliteral, ptr %lockable.addr.i, align 8
  %4 = load ptr, ptr %x.addr.i, align 8
  %tobool.i = icmp ne ptr %4, null
  br i1 %tobool.i, label %cond.true.i, label %cond.false.i

cond.true.i:                                      ; preds = %entry
  %5 = load ptr, ptr %lockable.addr.i, align 8
  br label %qemu_make_lockable.exit

cond.false.i:                                     ; preds = %entry
  br label %qemu_make_lockable.exit

qemu_make_lockable.exit:                          ; preds = %cond.false.i, %cond.true.i
  %cond.i = phi ptr [ %5, %cond.true.i ], [ null, %cond.false.i ]
  %call3 = call ptr @qemu_lockable_auto_lock(ptr noundef %cond.i)
  store ptr %call3, ptr %qemu_lockable_auto17, align 8
  store i32 0, ptr %i, align 4
  br label %for.cond

for.cond:                                         ; preds = %for.inc11, %qemu_make_lockable.exit
  %6 = load i32, ptr %i, align 4
  %cmp = icmp slt i32 %6, 48
  br i1 %cmp, label %for.body, label %for.end12

for.body:                                         ; preds = %for.cond
  %7 = load ptr, ptr %s, align 8
  %rules = getelementptr inbounds %struct.BDRVBlkdebugState, ptr %7, i32 0, i32 10
  %8 = load i32, ptr %i, align 4
  %idxprom = sext i32 %8 to i64
  %arrayidx = getelementptr [48 x %struct.anon.10], ptr %rules, i64 0, i64 %idxprom
  %lh_first = getelementptr inbounds %struct.anon.10, ptr %arrayidx, i32 0, i32 0
  %9 = load ptr, ptr %lh_first, align 8
  store ptr %9, ptr %rule, align 8
  br label %for.cond4

for.cond4:                                        ; preds = %for.inc, %for.body
  %10 = load ptr, ptr %rule, align 8
  %tobool = icmp ne ptr %10, null
  br i1 %tobool, label %land.rhs, label %land.end

land.rhs:                                         ; preds = %for.cond4
  %11 = load ptr, ptr %rule, align 8
  %next5 = getelementptr inbounds %struct.BlkdebugRule, ptr %11, i32 0, i32 4
  %le_next = getelementptr inbounds %struct.anon.20, ptr %next5, i32 0, i32 0
  %12 = load ptr, ptr %le_next, align 8
  store ptr %12, ptr %next, align 8
  br label %land.end

land.end:                                         ; preds = %land.rhs, %for.cond4
  %13 = phi i1 [ false, %for.cond4 ], [ true, %land.rhs ]
  br i1 %13, label %for.body6, label %for.end

for.body6:                                        ; preds = %land.end
  %14 = load ptr, ptr %rule, align 8
  %action = getelementptr inbounds %struct.BlkdebugRule, ptr %14, i32 0, i32 1
  %15 = load i32, ptr %action, align 4
  %cmp7 = icmp eq i32 %15, 2
  br i1 %cmp7, label %land.lhs.true, label %if.end

land.lhs.true:                                    ; preds = %for.body6
  %16 = load ptr, ptr %rule, align 8
  %options = getelementptr inbounds %struct.BlkdebugRule, ptr %16, i32 0, i32 3
  %tag8 = getelementptr inbounds %struct.anon.19, ptr %options, i32 0, i32 0
  %17 = load ptr, ptr %tag8, align 8
  %18 = load ptr, ptr %tag.addr, align 8
  %call9 = call i32 @strcmp(ptr noundef %17, ptr noundef %18) #11
  %tobool10 = icmp ne i32 %call9, 0
  br i1 %tobool10, label %if.end, label %if.then

if.then:                                          ; preds = %land.lhs.true
  %19 = load ptr, ptr %rule, align 8
  call void @remove_rule(ptr noundef %19)
  store i32 0, ptr %ret, align 4
  br label %if.end

if.end:                                           ; preds = %if.then, %land.lhs.true, %for.body6
  br label %for.inc

for.inc:                                          ; preds = %if.end
  %20 = load ptr, ptr %next, align 8
  store ptr %20, ptr %rule, align 8
  br label %for.cond4, !llvm.loop !9

for.end:                                          ; preds = %land.end
  br label %for.inc11

for.inc11:                                        ; preds = %for.end
  %21 = load i32, ptr %i, align 4
  %inc = add i32 %21, 1
  store i32 %inc, ptr %i, align 4
  br label %for.cond, !llvm.loop !10

for.end12:                                        ; preds = %for.cond
  %22 = load ptr, ptr %s, align 8
  %23 = load ptr, ptr %tag.addr, align 8
  %call13 = call i32 @resume_req_by_tag(ptr noundef %22, ptr noundef %23, i1 noundef zeroext true)
  %cmp14 = icmp eq i32 %call13, 0
  br i1 %cmp14, label %if.then15, label %if.end16

if.then15:                                        ; preds = %for.end12
  store i32 0, ptr %ret, align 4
  br label %if.end16

if.end16:                                         ; preds = %if.then15, %for.end12
  %24 = load i32, ptr %ret, align 4
  call void @glib_autoptr_cleanup_QemuLockable(ptr noundef %qemu_lockable_auto17)
  ret i32 %24
}