; Function Attrs: nounwind sspstrong uwtable
define internal range(i32 -2, 1) i32 @blkdebug_debug_remove_breakpoint(ptr noundef readonly captures(none) %bs, ptr noundef readonly captures(none) %tag) #0 {
entry:
  %opaque = getelementptr inbounds nuw i8, ptr %bs, i64 24
  %0 = load ptr, ptr %opaque, align 8
  %lock = getelementptr inbounds nuw i8, ptr %0, i64 488
  %1 = load atomic i64, ptr @qemu_mutex_lock_func monotonic, align 8
  %2 = inttoptr i64 %1 to ptr
  tail call void %2(ptr noundef nonnull %lock, ptr noundef nonnull @.str.53, i32 noundef 122) #13
  %rules = getelementptr inbounds nuw i8, ptr %0, i64 80
  br label %for.body

for.body:                                         ; preds = %entry, %for.inc11
  %indvars.iv = phi i64 [ 0, %entry ], [ %indvars.iv.next, %for.inc11 ]
  %ret.015 = phi i32 [ -2, %entry ], [ %ret.1.lcssa, %for.inc11 ]
  %arrayidx = getelementptr [48 x %struct.anon.10], ptr %rules, i64 0, i64 %indvars.iv
  %3 = load ptr, ptr %arrayidx, align 8
  %tobool.not11 = icmp eq ptr %3, null
  br i1 %tobool.not11, label %for.inc11, label %land.rhs

land.rhs:                                         ; preds = %for.body, %for.inc
  %ret.113 = phi i32 [ %ret.2, %for.inc ], [ %ret.015, %for.body ]
  %rule.012 = phi ptr [ %4, %for.inc ], [ %3, %for.body ]
  %next5 = getelementptr inbounds nuw i8, ptr %rule.012, i64 48
  %4 = load ptr, ptr %next5, align 8
  %action = getelementptr inbounds nuw i8, ptr %rule.012, i64 4
  %5 = load i32, ptr %action, align 4
  %cmp7 = icmp eq i32 %5, 2
  br i1 %cmp7, label %land.lhs.true, label %for.inc

land.lhs.true:                                    ; preds = %land.rhs
  %options = getelementptr inbounds nuw i8, ptr %rule.012, i64 16
  %6 = load ptr, ptr %options, align 8
  %call9 = tail call i32 @strcmp(ptr noundef nonnull dereferenceable(1) %6, ptr noundef nonnull dereferenceable(1) %tag) #14
  %tobool10.not = icmp eq i32 %call9, 0
  br i1 %tobool10.not, label %do.body.i, label %for.inc

do.body.i:                                        ; preds = %land.lhs.true
  tail call void @g_free(ptr noundef nonnull %6) #13
  %7 = load ptr, ptr %next5, align 8
  %cmp.not.i = icmp eq ptr %7, null
  %le_prev10.phi.trans.insert.i = getelementptr inbounds nuw i8, ptr %rule.012, i64 56
  %.pre10.i = load ptr, ptr %le_prev10.phi.trans.insert.i, align 8
  br i1 %cmp.not.i, label %remove_rule.exit, label %if.then.i

if.then.i:                                        ; preds = %do.body.i
  %le_prev6.i = getelementptr inbounds nuw i8, ptr %7, i64 56
  store ptr %.pre10.i, ptr %le_prev6.i, align 8
  %.pre.i = load ptr, ptr %next5, align 8
  br label %remove_rule.exit

remove_rule.exit:                                 ; preds = %do.body.i, %if.then.i
  %8 = phi ptr [ %.pre.i, %if.then.i ], [ null, %do.body.i ]
  store ptr %8, ptr %.pre10.i, align 8
  tail call void @llvm.memset.p0.i64(ptr noundef nonnull align 8 dereferenceable(16) %next5, i8 0, i64 16, i1 false)
  tail call void @g_free(ptr noundef nonnull %rule.012) #13
  br label %for.inc

for.inc:                                          ; preds = %land.rhs, %land.lhs.true, %remove_rule.exit
  %ret.2 = phi i32 [ %ret.113, %land.lhs.true ], [ 0, %remove_rule.exit ], [ %ret.113, %land.rhs ]
  %tobool.not = icmp eq ptr %4, null
  br i1 %tobool.not, label %for.inc11, label %land.rhs, !llvm.loop !9

for.inc11:                                        ; preds = %for.inc, %for.body
  %ret.1.lcssa = phi i32 [ %ret.015, %for.body ], [ %ret.2, %for.inc ]
  %indvars.iv.next = add nuw nsw i64 %indvars.iv, 1
  %exitcond.not = icmp eq i64 %indvars.iv.next, 48
  br i1 %exitcond.not, label %glib_autoptr_cleanup_QemuLockable.exit, label %for.body, !llvm.loop !10

glib_autoptr_cleanup_QemuLockable.exit:           ; preds = %for.inc11
  %call13 = tail call fastcc i32 @resume_req_by_tag(ptr noundef %0, ptr noundef %tag, i1 noundef zeroext true)
  %cmp14 = icmp eq i32 %call13, 0
  %spec.select = select i1 %cmp14, i32 0, i32 %ret.1.lcssa
  tail call void @qemu_mutex_unlock_impl(ptr noundef nonnull %lock, ptr noundef nonnull @.str.53, i32 noundef 132) #13
  ret i32 %spec.select
}